; Function Attrs: nounwind uwtable
define internal fastcc void @psset_stats_insert(ptr noundef captures(none) %0, ptr noundef readonly captures(none) %1) unnamed_addr #0 {
  %3 = getelementptr inbounds nuw i8, ptr %0, i64 1032
  %4 = getelementptr i8, ptr %1, i64 104
  %.val = load i64, ptr %4, align 8, !tbaa !25
  switch i64 %.val, label %55 [
    i64 0, label %5
    i64 512, label %25
  ]

5:                                                ; preds = %2
  %6 = getelementptr inbounds nuw i8, ptr %0, i64 4224
  %7 = getelementptr i8, ptr %1, i64 176
  %.val4.i = load i64, ptr %7, align 8, !tbaa !26
  %8 = load i64, ptr %3, align 8, !tbaa !27
  %9 = add i64 %8, 1
  store i64 %9, ptr %3, align 8, !tbaa !27
  %10 = getelementptr inbounds nuw i8, ptr %0, i64 1048
  %11 = load i64, ptr %10, align 8, !tbaa !29
  %12 = add i64 %11, %.val4.i
  store i64 %12, ptr %10, align 8, !tbaa !29
  %13 = getelementptr i8, ptr %1, i64 16
  %.val5.i = load i8, ptr %13, align 8, !tbaa !30, !range !23, !noundef !24
  %14 = zext nneg i8 %.val5.i to i64
  %15 = getelementptr inbounds nuw i8, ptr %0, i64 1056
  %16 = getelementptr inbounds nuw [2 x %struct.psset_bin_stats_s], ptr %15, i64 0, i64 %14
  %17 = load i64, ptr %16, align 8, !tbaa !6
  %18 = add i64 %17, 1
  store i64 %18, ptr %16, align 8, !tbaa !6
  %19 = getelementptr inbounds nuw i8, ptr %16, i64 16
  %20 = load i64, ptr %19, align 8, !tbaa !12
  %21 = add i64 %20, %.val4.i
  store i64 %21, ptr %19, align 8, !tbaa !12
  %22 = getelementptr inbounds nuw %struct.psset_bin_stats_s, ptr %6, i64 %14
  %23 = load i64, ptr %22, align 8, !tbaa !6
  %24 = add i64 %23, 1
  store i64 %24, ptr %22, align 8, !tbaa !6
  br label %106

25:                                               ; preds = %2
  %26 = getelementptr inbounds nuw i8, ptr %0, i64 4176
  %27 = getelementptr i8, ptr %1, i64 176
  %.val4.i16 = load i64, ptr %27, align 8, !tbaa !26
  %28 = add i64 %.val4.i16, -512
  %29 = load i64, ptr %3, align 8, !tbaa !27
  %30 = add i64 %29, 1
  store i64 %30, ptr %3, align 8, !tbaa !27
  %31 = getelementptr inbounds nuw i8, ptr %0, i64 1040
  %32 = load i64, ptr %31, align 8, !tbaa !31
  %33 = add i64 %32, 512
  store i64 %33, ptr %31, align 8, !tbaa !31
  %34 = getelementptr inbounds nuw i8, ptr %0, i64 1048
  %35 = load i64, ptr %34, align 8, !tbaa !29
  %36 = add i64 %35, %28
  store i64 %36, ptr %34, align 8, !tbaa !29
  %37 = getelementptr i8, ptr %1, i64 16
  %.val5.i17 = load i8, ptr %37, align 8, !tbaa !30, !range !23, !noundef !24
  %38 = zext nneg i8 %.val5.i17 to i64
  %39 = getelementptr inbounds nuw i8, ptr %0, i64 1056
  %40 = getelementptr inbounds nuw [2 x %struct.psset_bin_stats_s], ptr %39, i64 0, i64 %38
  %41 = load i64, ptr %40, align 8, !tbaa !6
  %42 = add i64 %41, 1
  store i64 %42, ptr %40, align 8, !tbaa !6
  %43 = getelementptr inbounds nuw i8, ptr %40, i64 8
  %44 = load i64, ptr %43, align 8, !tbaa !11
  %45 = add i64 %44, 512
  store i64 %45, ptr %43, align 8, !tbaa !11
  %46 = getelementptr inbounds nuw i8, ptr %40, i64 16
  %47 = load i64, ptr %46, align 8, !tbaa !12
  %48 = add i64 %47, %28
  store i64 %48, ptr %46, align 8, !tbaa !12
  %49 = getelementptr inbounds nuw %struct.psset_bin_stats_s, ptr %26, i64 %38
  %50 = load i64, ptr %49, align 8, !tbaa !6
  %51 = add i64 %50, 1
  store i64 %51, ptr %49, align 8, !tbaa !6
  %52 = getelementptr inbounds nuw i8, ptr %49, i64 8
  %53 = load i64, ptr %52, align 8, !tbaa !11
  %54 = add i64 %53, 512
  store i64 %54, ptr %52, align 8, !tbaa !11
  br label %106

55:                                               ; preds = %2
  %56 = getelementptr i8, ptr %1, i64 96
  %.val14 = load i64, ptr %56, align 8, !tbaa !32
  %57 = shl i64 %.val14, 12
  %58 = tail call i64 @je_sz_psz_quantize_floor(i64 noundef %57) #9
  %59 = icmp ugt i64 %58, 8070450532247928832
  br i1 %59, label %psset_hpdata_heap_index.exit, label %60, !prof !33

60:                                               ; preds = %55
  %61 = icmp ne i64 %58, 0
  tail call void @llvm.assume(i1 %61)
  %62 = add nsw i64 %58, -1
  %63 = tail call range(i64 0, 65) i64 @llvm.ctlz.i64(i64 %62, i1 false)
  %64 = trunc nuw nsw i64 %63 to i32
  %65 = tail call i32 @llvm.usub.sat.i32(i32 50, i32 %64)
  %66 = icmp samesign ult i64 %58, 16385
  %67 = add nuw nsw i32 %65, 11
  %68 = zext nneg i32 %67 to i64
  %69 = select i1 %66, i64 12, i64 %68
  %70 = lshr i64 %62, %69
  %71 = trunc i64 %70 to i32
  %72 = and i32 %71, 3
  %73 = shl nuw nsw i32 %65, 2
  %74 = or disjoint i32 %72, %73
  %75 = zext nneg i32 %74 to i64
  br label %psset_hpdata_heap_index.exit

psset_hpdata_heap_index.exit:                     ; preds = %55, %60
  %.0.i.i = phi i64 [ %75, %60 ], [ 199, %55 ]
  %76 = getelementptr inbounds nuw i8, ptr %0, i64 1104
  %77 = getelementptr inbounds nuw [64 x [2 x %struct.psset_bin_stats_s]], ptr %76, i64 0, i64 %.0.i.i
  %.val.i18 = load i64, ptr %4, align 8, !tbaa !25
  %78 = getelementptr i8, ptr %1, i64 176
  %.val4.i19 = load i64, ptr %78, align 8, !tbaa !26
  %79 = sub i64 %.val4.i19, %.val.i18
  %80 = load i64, ptr %3, align 8, !tbaa !27
  %81 = add i64 %80, 1
  store i64 %81, ptr %3, align 8, !tbaa !27
  %82 = getelementptr inbounds nuw i8, ptr %0, i64 1040
  %83 = load i64, ptr %82, align 8, !tbaa !31
  %84 = add i64 %83, %.val.i18
  store i64 %84, ptr %82, align 8, !tbaa !31
  %85 = getelementptr inbounds nuw i8, ptr %0, i64 1048
  %86 = load i64, ptr %85, align 8, !tbaa !29
  %87 = add i64 %86, %79
  store i64 %87, ptr %85, align 8, !tbaa !29
  %88 = getelementptr i8, ptr %1, i64 16
  %.val5.i20 = load i8, ptr %88, align 8, !tbaa !30, !range !23, !noundef !24
  %89 = zext nneg i8 %.val5.i20 to i64
  %90 = getelementptr inbounds nuw i8, ptr %0, i64 1056
  %91 = getelementptr inbounds nuw [2 x %struct.psset_bin_stats_s], ptr %90, i64 0, i64 %89
  %92 = load i64, ptr %91, align 8, !tbaa !6
  %93 = add i64 %92, 1
  store i64 %93, ptr %91, align 8, !tbaa !6
  %94 = getelementptr inbounds nuw i8, ptr %91, i64 8
  %95 = load i64, ptr %94, align 8, !tbaa !11
  %96 = add i64 %95, %.val.i18
  store i64 %96, ptr %94, align 8, !tbaa !11
  %97 = getelementptr inbounds nuw i8, ptr %91, i64 16
  %98 = load i64, ptr %97, align 8, !tbaa !12
  %99 = add i64 %98, %79
  store i64 %99, ptr %97, align 8, !tbaa !12
  %100 = getelementptr inbounds nuw %struct.psset_bin_stats_s, ptr %77, i64 %89
  %101 = load i64, ptr %100, align 8, !tbaa !6
  %102 = add i64 %101, 1
  store i64 %102, ptr %100, align 8, !tbaa !6
  %103 = getelementptr inbounds nuw i8, ptr %100, i64 8
  %104 = load i64, ptr %103, align 8, !tbaa !11
  %105 = add i64 %104, %.val.i18
  store i64 %105, ptr %103, align 8, !tbaa !11
  br label %106

106:                                              ; preds = %25, %psset_hpdata_heap_index.exit, %5
  %.sink24 = phi ptr [ %49, %25 ], [ %100, %psset_hpdata_heap_index.exit ], [ %22, %5 ]
  %.sink23 = phi i64 [ %28, %25 ], [ %79, %psset_hpdata_heap_index.exit ], [ %.val4.i, %5 ]
  %107 = getelementptr inbounds nuw i8, ptr %.sink24, i64 16
  %108 = load i64, ptr %107, align 8, !tbaa !12
  %109 = add i64 %108, %.sink23
  store i64 %109, ptr %107, align 8, !tbaa !12
  ret void
}